target datalayout = "e-m:e-p270:32:32-p271:32:32-p272:64:64-i64:64-i128:128-f80:128-n8:16:32:64-S128"
target triple = "x86_64-pc-linux-gnu"

%struct.json_dumper = type { ptr, ptr, i32, i32, i32, i32, [1100 x i8] }
%struct.except_id_t = type { i64, i64 }
%struct.jsmntok_t = type { i32, i32, i32, i32 }
%struct.except_stacknode = type { ptr, i32, %union.anon }
%union.anon = type { ptr }
%struct.except_catch = type { ptr, i64, %struct.except_t, [1 x %struct.__jmp_buf_tag] }
%struct.except_t = type { %struct.except_id_t, ptr, ptr }
%struct.__jmp_buf_tag = type { [8 x i64], i32, %struct.__sigset_t }
%struct.__sigset_t = type { [16 x i64] }

@stderr = external global ptr, align 8
@stdout = external global ptr, align 8
@dumper = internal global %struct.json_dumper zeroinitializer, align 8
@rpcid = internal global i32 0, align 4
@.str.5 = private unnamed_addr constant [3 x i8] c"%d\00", align 1
@.str.8 = private unnamed_addr constant [8 x i8] c"jsonrpc\00", align 1
@.str.9 = private unnamed_addr constant [4 x i8] c"2.0\00", align 1
@.str.10 = private unnamed_addr constant [3 x i8] c"id\00", align 1
@.str.14 = private unnamed_addr constant [7 x i8] c"status\00", align 1
@.str.81 = private unnamed_addr constant [5 x i8] c"file\00", align 1
@.str.117 = private unnamed_addr constant [19 x i8] c"load: filename=%s\0A\00", align 1
@.str.118 = private unnamed_addr constant [24 x i8] c"Unable to open the file\00", align 1
@sharkd_session_process_load.catch_spec = internal constant [1 x %struct.except_id_t] [%struct.except_id_t { i64 1, i64 0 }], align 16
@.str.119 = private unnamed_addr constant [27 x i8] c"Load failed, out of memory\00", align 1
@.str.120 = private unnamed_addr constant [24 x i8] c"load: OutOfMemoryError\0A\00", align 1
@.str.121 = private unnamed_addr constant [4 x i8] c"err\00", align 1
@.str.122 = private unnamed_addr constant [7 x i8] c"result\00", align 1

; Function Attrs: null_pointer_is_valid sspstrong uwtable
define internal void @sharkd_json_response_close() #0 {
  call void @json_dumper_end_object(ptr noundef @dumper)
  %1 = call zeroext i1 @json_dumper_finish(ptr noundef @dumper)
  %2 = load ptr, ptr @stdout, align 8
  %3 = call i32 @fflush(ptr noundef %2)
  ret void
}

; Function Attrs: null_pointer_is_valid sspstrong uwtable
define internal void @sharkd_json_object_open(ptr noundef %0) #0 {
  %2 = alloca ptr, align 8
  store ptr %0, ptr %2, align 8
  %3 = load ptr, ptr %2, align 8
  %4 = icmp ne ptr %3, null
  br i1 %4, label %5, label %7

5:                                                ; preds = %1
  %6 = load ptr, ptr %2, align 8
  call void @json_dumper_set_member_name(ptr noundef @dumper, ptr noundef %6)
  br label %7

7:                                                ; preds = %5, %1
  call void @json_dumper_begin_object(ptr noundef @dumper)
  ret void
}

; Function Attrs: null_pointer_is_valid sspstrong uwtable
define internal void @sharkd_json_response_open(i32 noundef %0) #0 {
  %2 = alloca i32, align 4
  store i32 %0, ptr %2, align 4
  call void @json_dumper_begin_object(ptr noundef @dumper)
  call void @sharkd_json_value_string(ptr noundef @.str.8, ptr noundef @.str.9)
  %3 = load i32, ptr %2, align 4
  call void (ptr, ptr, ...) @sharkd_json_value_anyf(ptr noundef @.str.10, ptr noundef @.str.5, i32 noundef %3)
  ret void
}

; Function Attrs: null_pointer_is_valid sspstrong uwtable
define internal void @sharkd_json_result_epilogue() #0 {
  call void @json_dumper_end_object(ptr noundef @dumper)
  call void @sharkd_json_response_close()
  ret void
}

; Function Attrs: null_pointer_is_valid sspstrong uwtable
define internal void @sharkd_json_value_string(ptr noundef %0, ptr noundef %1) #0 {
  %3 = alloca ptr, align 8
  %4 = alloca ptr, align 8
  store ptr %0, ptr %3, align 8
  store ptr %1, ptr %4, align 8
  %5 = load ptr, ptr %3, align 8
  %6 = icmp ne ptr %5, null
  br i1 %6, label %7, label %9

7:                                                ; preds = %2
  %8 = load ptr, ptr %3, align 8
  call void @json_dumper_set_member_name(ptr noundef @dumper, ptr noundef %8)
  br label %9

9:                                                ; preds = %7, %2
  %10 = load ptr, ptr %4, align 8
  call void @json_dumper_value_string(ptr noundef @dumper, ptr noundef %10)
  ret void
}

; Function Attrs: null_pointer_is_valid sspstrong uwtable
define internal void @sharkd_json_result_prologue(i32 noundef %0) #0 {
  %2 = alloca i32, align 4
  store i32 %0, ptr %2, align 4
  %3 = load i32, ptr %2, align 4
  call void @sharkd_json_response_open(i32 noundef %3)
  call void @sharkd_json_object_open(ptr noundef @.str.122)
  ret void
}

; Function Attrs: nounwind null_pointer_is_valid sspstrong uwtable
define internal ptr @json_find_attr(ptr noundef %0, ptr noundef %1, i32 noundef %2, ptr noundef %3) #7 {
  %5 = alloca ptr, align 8
  %6 = alloca ptr, align 8
  %7 = alloca ptr, align 8
  %8 = alloca i32, align 4
  %9 = alloca ptr, align 8
  %10 = alloca i32, align 4
  %11 = alloca ptr, align 8
  %12 = alloca ptr, align 8
  %13 = alloca i32, align 4
  store ptr %0, ptr %6, align 8
  store ptr %1, ptr %7, align 8
  store i32 %2, ptr %8, align 4
  store ptr %3, ptr %9, align 8
  call void @llvm.lifetime.start.p0(i64 4, ptr %10) #21
  store i32 0, ptr %10, align 4
  br label %14

14:                                               ; preds = %49, %4
  %15 = load i32, ptr %10, align 4
  %16 = load i32, ptr %8, align 4
  %17 = icmp slt i32 %15, %16
  br i1 %17, label %18, label %52

18:                                               ; preds = %14
  call void @llvm.lifetime.start.p0(i64 8, ptr %11) #21
  %19 = load ptr, ptr %6, align 8
  %20 = load ptr, ptr %7, align 8
  %21 = load i32, ptr %10, align 4
  %22 = add i32 %21, 0
  %23 = sext i32 %22 to i64
  %24 = getelementptr %struct.jsmntok_t, ptr %20, i64 %23
  %25 = getelementptr inbounds nuw %struct.jsmntok_t, ptr %24, i32 0, i32 1
  %26 = load i32, ptr %25, align 4
  %27 = sext i32 %26 to i64
  %28 = getelementptr i8, ptr %19, i64 %27
  store ptr %28, ptr %11, align 8
  call void @llvm.lifetime.start.p0(i64 8, ptr %12) #21
  %29 = load ptr, ptr %6, align 8
  %30 = load ptr, ptr %7, align 8
  %31 = load i32, ptr %10, align 4
  %32 = add i32 %31, 1
  %33 = sext i32 %32 to i64
  %34 = getelementptr %struct.jsmntok_t, ptr %30, i64 %33
  %35 = getelementptr inbounds nuw %struct.jsmntok_t, ptr %34, i32 0, i32 1
  %36 = load i32, ptr %35, align 4
  %37 = sext i32 %36 to i64
  %38 = getelementptr i8, ptr %29, i64 %37
  store ptr %38, ptr %12, align 8
  %39 = load ptr, ptr %11, align 8
  %40 = load ptr, ptr %9, align 8
  %41 = call i32 @strcmp(ptr noundef %39, ptr noundef %40) #22
  %42 = icmp ne i32 %41, 0
  br i1 %42, label %45, label %43

43:                                               ; preds = %18
  %44 = load ptr, ptr %12, align 8
  store ptr %44, ptr %5, align 8
  store i32 1, ptr %13, align 4
  br label %46

45:                                               ; preds = %18
  store i32 0, ptr %13, align 4
  br label %46

46:                                               ; preds = %45, %43
  call void @llvm.lifetime.end.p0(i64 8, ptr %12) #21
  call void @llvm.lifetime.end.p0(i64 8, ptr %11) #21
  %47 = load i32, ptr %13, align 4
  switch i32 %47, label %53 [
    i32 0, label %48
  ]

48:                                               ; preds = %46
  br label %49

49:                                               ; preds = %48
  %50 = load i32, ptr %10, align 4
  %51 = add i32 %50, 2
  store i32 %51, ptr %10, align 4
  br label %14, !llvm.loop !18

52:                                               ; preds = %14
  store ptr null, ptr %5, align 8
  store i32 1, ptr %13, align 4
  br label %53

53:                                               ; preds = %52, %46
  call void @llvm.lifetime.end.p0(i64 4, ptr %10) #21
  %54 = load ptr, ptr %5, align 8
  ret ptr %54
}

; Function Attrs: null_pointer_is_valid sspstrong uwtable
define internal void @sharkd_session_process_load(ptr noundef %0, ptr noundef %1, i32 noundef %2) #0 {
  %4 = alloca ptr, align 8
  %5 = alloca ptr, align 8
  %6 = alloca i32, align 4
  %7 = alloca ptr, align 8
  %8 = alloca i32, align 4
  %9 = alloca i32, align 4
  %10 = alloca ptr, align 8
  %11 = alloca i32, align 4
  %12 = alloca %struct.except_stacknode, align 8
  %13 = alloca %struct.except_catch, align 8
  store ptr %0, ptr %4, align 8
  store ptr %1, ptr %5, align 8
  store i32 %2, ptr %6, align 4
  call void @llvm.lifetime.start.p0(i64 8, ptr %7) #21
  %14 = load ptr, ptr %4, align 8
  %15 = load ptr, ptr %5, align 8
  %16 = load i32, ptr %6, align 4
  %17 = call ptr @json_find_attr(ptr noundef %14, ptr noundef %15, i32 noundef %16, ptr noundef @.str.81)
  store ptr %17, ptr %7, align 8
  call void @llvm.lifetime.start.p0(i64 4, ptr %8) #21
  store i32 0, ptr %8, align 4
  %18 = load ptr, ptr %7, align 8
  %19 = icmp ne ptr %18, null
  br i1 %19, label %21, label %20

20:                                               ; preds = %3
  store i32 1, ptr %9, align 4
  br label %99

21:                                               ; preds = %3
  %22 = load ptr, ptr @stderr, align 8
  %23 = load ptr, ptr %7, align 8
  %24 = call i32 (ptr, i32, ptr, ...) @__fprintf_chk(ptr noundef %22, i32 noundef 2, ptr noundef @.str.117, ptr noundef %23)
  %25 = load ptr, ptr %7, align 8
  %26 = call i32 @sharkd_cf_open(ptr noundef %25, i32 noundef 0, i1 noundef zeroext false, ptr noundef %8)
  %27 = icmp ne i32 %26, 0
  br i1 %27, label %28, label %30

28:                                               ; preds = %21
  %29 = load i32, ptr @rpcid, align 4
  call void (i32, i32, ptr, ptr, ...) @sharkd_json_error(i32 noundef %29, i32 noundef -2001, ptr noundef null, ptr noundef @.str.118)
  store i32 1, ptr %9, align 4
  br label %99

30:                                               ; preds = %21
  call void @llvm.lifetime.start.p0(i64 8, ptr %10) #21
  call void @llvm.lifetime.start.p0(i64 4, ptr %11) #21
  store volatile i32 0, ptr %11, align 4
  call void @llvm.lifetime.start.p0(i64 24, ptr %12) #21
  call void @llvm.lifetime.start.p0(i64 248, ptr %13) #21
  call void @except_setup_try(ptr noundef %12, ptr noundef %13, ptr noundef @sharkd_session_process_load.catch_spec, i64 noundef 1)
  %31 = getelementptr inbounds nuw %struct.except_catch, ptr %13, i32 0, i32 3
  %32 = getelementptr inbounds [1 x %struct.__jmp_buf_tag], ptr %31, i64 0, i64 0
  %33 = call i32 @_setjmp(ptr noundef %32) #24
  %34 = icmp ne i32 %33, 0
  br i1 %34, label %35, label %37

35:                                               ; preds = %30
  %36 = getelementptr inbounds nuw %struct.except_catch, ptr %13, i32 0, i32 2
  store volatile ptr %36, ptr %10, align 8
  br label %38

37:                                               ; preds = %30
  store volatile ptr null, ptr %10, align 8
  br label %38

38:                                               ; preds = %37, %35
  %39 = load volatile i32, ptr %11, align 4
  %40 = and i32 %39, 1
  %41 = icmp ne i32 %40, 0
  br i1 %41, label %42, label %45

42:                                               ; preds = %38
  %43 = load volatile i32, ptr %11, align 4
  %44 = or i32 %43, 2
  store volatile i32 %44, ptr %11, align 4
  br label %45

45:                                               ; preds = %42, %38
  %46 = load volatile i32, ptr %11, align 4
  %47 = and i32 %46, -2
  store volatile i32 %47, ptr %11, align 4
  %48 = load volatile i32, ptr %11, align 4
  %49 = icmp eq i32 %48, 0
  br i1 %49, label %50, label %55

50:                                               ; preds = %45
  %51 = load volatile ptr, ptr %10, align 8
  %52 = icmp eq ptr %51, null
  br i1 %52, label %53, label %55

53:                                               ; preds = %50
  %54 = call i32 @sharkd_load_cap_file()
  store i32 %54, ptr %8, align 4
  br label %55

55:                                               ; preds = %53, %50, %45
  %56 = load volatile i32, ptr %11, align 4
  %57 = icmp eq i32 %56, 0
  br i1 %57, label %58, label %75

58:                                               ; preds = %55
  %59 = load volatile ptr, ptr %10, align 8
  %60 = icmp ne ptr %59, null
  br i1 %60, label %61, label %75

61:                                               ; preds = %58
  %62 = load volatile ptr, ptr %10, align 8
  %63 = getelementptr inbounds nuw %struct.except_t, ptr %62, i32 0, i32 0
  %64 = getelementptr inbounds nuw %struct.except_id_t, ptr %63, i32 0, i32 1
  %65 = load volatile i64, ptr %64, align 8
  %66 = icmp eq i64 %65, 8
  br i1 %66, label %67, label %75

67:                                               ; preds = %61
  %68 = load volatile i32, ptr %11, align 4
  %69 = or i32 %68, 1
  store volatile i32 %69, ptr %11, align 4
  %70 = icmp ne i32 %69, 0
  br i1 %70, label %71, label %75

71:                                               ; preds = %67
  %72 = load i32, ptr @rpcid, align 4
  call void (i32, i32, ptr, ptr, ...) @sharkd_json_error(i32 noundef %72, i32 noundef -32603, ptr noundef null, ptr noundef @.str.119)
  %73 = load ptr, ptr @stderr, align 8
  %74 = call i32 (ptr, i32, ptr, ...) @__fprintf_chk(ptr noundef %73, i32 noundef 2, ptr noundef @.str.120)
  store i32 12, ptr %8, align 4
  br label %75

75:                                               ; preds = %71, %67, %61, %58, %55
  %76 = load volatile i32, ptr %11, align 4
  %77 = and i32 %76, 1
  %78 = icmp ne i32 %77, 0
  br i1 %78, label %84, label %79

79:                                               ; preds = %75
  %80 = load volatile ptr, ptr %10, align 8
  %81 = icmp ne ptr %80, null
  br i1 %81, label %82, label %84

82:                                               ; preds = %79
  %83 = load volatile ptr, ptr %10, align 8
  call void @except_rethrow(ptr noundef %83) #25
  unreachable

84:                                               ; preds = %79, %75
  %85 = getelementptr inbounds nuw %struct.except_catch, ptr %13, i32 0, i32 2
  %86 = getelementptr inbounds nuw %struct.except_t, ptr %85, i32 0, i32 2
  %87 = load volatile ptr, ptr %86, align 8
  call void @except_free(ptr noundef %87)
  %88 = call ptr @except_pop()
  call void @llvm.lifetime.end.p0(i64 248, ptr %13) #21
  call void @llvm.lifetime.end.p0(i64 24, ptr %12) #21
  call void @llvm.lifetime.end.p0(i64 4, ptr %11) #21
  call void @llvm.lifetime.end.p0(i64 8, ptr %10) #21
  %89 = load i32, ptr %8, align 4
  %90 = icmp eq i32 %89, 0
  br i1 %90, label %91, label %93

91:                                               ; preds = %84
  %92 = load i32, ptr @rpcid, align 4
  call void @sharkd_json_simple_ok(i32 noundef %92)
  br label %98

93:                                               ; preds = %84
  %94 = load i32, ptr @rpcid, align 4
  call void @sharkd_json_result_prologue(i32 noundef %94)
  %95 = load i32, ptr %8, align 4
  %96 = call ptr @wtap_strerror(i32 noundef %95)
  call void @sharkd_json_value_string(ptr noundef @.str.14, ptr noundef %96)
  %97 = load i32, ptr %8, align 4
  call void (ptr, ptr, ...) @sharkd_json_value_anyf(ptr noundef @.str.121, ptr noundef @.str.5, i32 noundef %97)
  call void @sharkd_json_result_epilogue()
  br label %98

98:                                               ; preds = %93, %91
  store i32 0, ptr %9, align 4
  br label %99

99:                                               ; preds = %98, %28, %20
  call void @llvm.lifetime.end.p0(i64 4, ptr %8) #21
  call void @llvm.lifetime.end.p0(i64 8, ptr %7) #21
  %100 = load i32, ptr %9, align 4
  switch i32 %100, label %102 [
    i32 0, label %101
    i32 1, label %101
  ]

101:                                              ; preds = %99, %99
  ret void

102:                                              ; preds = %99
  unreachable
}