; Function Attrs: null_pointer_is_valid sspstrong uwtable
define internal fastcc void @sharkd_session_process_load(ptr noundef %0, ptr noundef readonly captures(none) %1, i32 noundef range(i32 0, 2147483647) %2) unnamed_addr #0 {
  %4 = alloca i32, align 4
  %5 = alloca ptr, align 8
  %6 = alloca i32, align 4
  %7 = alloca %struct.except_stacknode, align 8
  %8 = alloca %struct.except_catch, align 8
  %.not.i = icmp eq i32 %2, 0
  br i1 %.not.i, label %json_find_attr.exit.thread, label %.lr.ph.preheader.i

.lr.ph.preheader.i:                               ; preds = %3
  %9 = zext nneg i32 %2 to i64
  br label %.lr.ph.i

.lr.ph.i:                                         ; preds = %15, %.lr.ph.preheader.i
  %indvars.iv.i = phi i64 [ 0, %.lr.ph.preheader.i ], [ %indvars.iv.next.i, %15 ]
  %10 = getelementptr %struct.jsmntok_t, ptr %1, i64 %indvars.iv.i, i32 1
  %11 = load i32, ptr %10, align 4
  %12 = sext i32 %11 to i64
  %13 = getelementptr i8, ptr %0, i64 %12
  %14 = call i32 @strcmp(ptr noundef readonly %13, ptr noundef nonnull dereferenceable(5) @.str.81) #18
  %.not.not.i = icmp eq i32 %14, 0
  br i1 %.not.not.i, label %json_find_attr.exit, label %15

15:                                               ; preds = %.lr.ph.i
  %indvars.iv.next.i = add nuw nsw i64 %indvars.iv.i, 2
  %16 = icmp samesign ult i64 %indvars.iv.next.i, %9
  br i1 %16, label %.lr.ph.i, label %json_find_attr.exit.thread, !llvm.loop !10

json_find_attr.exit.thread:                       ; preds = %15, %3
  call void @llvm.lifetime.start.p0(i64 4, ptr nonnull %4) #17
  br label %74

json_find_attr.exit:                              ; preds = %.lr.ph.i
  %17 = and i64 %indvars.iv.i, 4294967294
  %18 = or disjoint i64 %17, 1
  %19 = getelementptr %struct.jsmntok_t, ptr %1, i64 %18, i32 1
  %20 = load i32, ptr %19, align 4
  %21 = sext i32 %20 to i64
  %22 = getelementptr i8, ptr %0, i64 %21
  call void @llvm.lifetime.start.p0(i64 4, ptr nonnull %4) #17
  store i32 0, ptr %4, align 4
  %.not = icmp eq ptr %22, null
  br i1 %.not, label %74, label %23

23:                                               ; preds = %json_find_attr.exit
  %24 = load ptr, ptr @stderr, align 8
  %25 = call i32 (ptr, i32, ptr, ...) @__fprintf_chk(ptr noundef %24, i32 noundef 2, ptr noundef nonnull @.str.117, ptr noundef nonnull %22)
  %26 = call i32 @sharkd_cf_open(ptr noundef nonnull %22, i32 noundef 0, i1 noundef zeroext false, ptr noundef nonnull %4)
  %.not17 = icmp eq i32 %26, 0
  br i1 %.not17, label %29, label %27

27:                                               ; preds = %23
  %28 = load i32, ptr @rpcid, align 4
  call void (i32, i32, ptr, ptr, ...) @sharkd_json_error(i32 noundef %28, i32 noundef -2001, ptr poison, ptr noundef nonnull @.str.118)
  br label %74

29:                                               ; preds = %23
  call void @llvm.lifetime.start.p0(i64 8, ptr nonnull %5)
  call void @llvm.lifetime.start.p0(i64 4, ptr nonnull %6)
  store volatile i32 0, ptr %6, align 4
  call void @llvm.lifetime.start.p0(i64 24, ptr nonnull %7) #17
  call void @llvm.lifetime.start.p0(i64 248, ptr nonnull %8) #17
  call void @except_setup_try(ptr noundef nonnull %7, ptr noundef nonnull %8, ptr noundef nonnull @sharkd_session_process_load.catch_spec, i64 noundef 1)
  %30 = getelementptr inbounds nuw i8, ptr %8, i64 48
  %31 = call i32 @_setjmp(ptr noundef nonnull %30) #21
  %.not18 = icmp eq i32 %31, 0
  %32 = getelementptr inbounds nuw i8, ptr %8, i64 16
  %.sink = select i1 %.not18, ptr null, ptr %32
  store volatile ptr %.sink, ptr %5, align 8
  %.0..0..0..0. = load volatile i32, ptr %6, align 4
  %33 = and i32 %.0..0..0..0., 1
  %.not19 = icmp eq i32 %33, 0
  br i1 %.not19, label %36, label %34

34:                                               ; preds = %29
  %.0..0..0..0.1 = load volatile i32, ptr %6, align 4
  %35 = or i32 %.0..0..0..0.1, 2
  store volatile i32 %35, ptr %6, align 4
  br label %36

36:                                               ; preds = %34, %29
  %.0..0..0..0.2 = load volatile i32, ptr %6, align 4
  %37 = and i32 %.0..0..0..0.2, -2
  store volatile i32 %37, ptr %6, align 4
  %.0..0..0..0.3 = load volatile i32, ptr %6, align 4
  %38 = icmp eq i32 %.0..0..0..0.3, 0
  br i1 %38, label %39, label %43

39:                                               ; preds = %36
  %.0..0..0..0.7 = load volatile ptr, ptr %5, align 8
  %40 = icmp eq ptr %.0..0..0..0.7, null
  br i1 %40, label %41, label %43

41:                                               ; preds = %39
  %42 = call i32 @sharkd_load_cap_file()
  store i32 %42, ptr %4, align 4
  br label %43

43:                                               ; preds = %41, %39, %36
  %.0..0..0..0.4 = load volatile i32, ptr %6, align 4
  %44 = icmp eq i32 %.0..0..0..0.4, 0
  br i1 %44, label %45, label %55

45:                                               ; preds = %43
  %.0..0..0..0.8 = load volatile ptr, ptr %5, align 8
  %.not20 = icmp eq ptr %.0..0..0..0.8, null
  br i1 %.not20, label %55, label %46

46:                                               ; preds = %45
  %.0..0..0..0.9 = load volatile ptr, ptr %5, align 8
  %47 = getelementptr inbounds nuw i8, ptr %.0..0..0..0.9, i64 8
  %48 = load volatile i64, ptr %47, align 8
  %49 = icmp eq i64 %48, 8
  br i1 %49, label %50, label %55

50:                                               ; preds = %46
  %.0..0..0..0.5 = load volatile i32, ptr %6, align 4
  %51 = or i32 %.0..0..0..0.5, 1
  store volatile i32 %51, ptr %6, align 4
  %52 = load i32, ptr @rpcid, align 4
  call void (i32, i32, ptr, ptr, ...) @sharkd_json_error(i32 noundef %52, i32 noundef -32603, ptr poison, ptr noundef nonnull @.str.119)
  %53 = load ptr, ptr @stderr, align 8
  %54 = call i32 (ptr, i32, ptr, ...) @__fprintf_chk(ptr noundef %53, i32 noundef 2, ptr noundef nonnull @.str.120)
  store i32 12, ptr %4, align 4
  br label %55

55:                                               ; preds = %50, %46, %45, %43
  %.0..0..0..0.6 = load volatile i32, ptr %6, align 4
  %56 = and i32 %.0..0..0..0.6, 1
  %.not21 = icmp eq i32 %56, 0
  br i1 %.not21, label %57, label %59

57:                                               ; preds = %55
  %.0..0..0..0.10 = load volatile ptr, ptr %5, align 8
  %.not22 = icmp eq ptr %.0..0..0..0.10, null
  br i1 %.not22, label %59, label %58

58:                                               ; preds = %57
  %.0..0..0..0.11 = load volatile ptr, ptr %5, align 8
  call void @except_rethrow(ptr noundef %.0..0..0..0.11) #22
  unreachable

59:                                               ; preds = %57, %55
  %60 = getelementptr inbounds nuw i8, ptr %8, i64 40
  %61 = load volatile ptr, ptr %60, align 8
  call void @except_free(ptr noundef %61)
  %62 = call ptr @except_pop()
  call void @llvm.lifetime.end.p0(i64 248, ptr nonnull %8) #17
  call void @llvm.lifetime.end.p0(i64 24, ptr nonnull %7) #17
  call void @llvm.lifetime.end.p0(i64 4, ptr nonnull %6)
  call void @llvm.lifetime.end.p0(i64 8, ptr nonnull %5)
  %63 = load i32, ptr %4, align 4
  %64 = icmp eq i32 %63, 0
  %65 = load i32, ptr @rpcid, align 4
  br i1 %64, label %66, label %67

66:                                               ; preds = %59
  call fastcc void @sharkd_json_simple_ok(i32 noundef %65)
  br label %74

67:                                               ; preds = %59
  call void @json_dumper_begin_object(ptr noundef nonnull @dumper)
  call void @json_dumper_set_member_name(ptr noundef nonnull @dumper, ptr noundef nonnull @.str.8)
  call void @json_dumper_value_string(ptr noundef nonnull @dumper, ptr noundef nonnull @.str.9)
  call void (ptr, ptr, ...) @sharkd_json_value_anyf(ptr noundef nonnull @.str.10, ptr noundef nonnull @.str.5, i32 noundef %65)
  call void @json_dumper_set_member_name(ptr noundef nonnull @dumper, ptr noundef nonnull @.str.122)
  call void @json_dumper_begin_object(ptr noundef nonnull @dumper)
  %68 = load i32, ptr %4, align 4
  %69 = call ptr @wtap_strerror(i32 noundef %68)
  call void @json_dumper_set_member_name(ptr noundef nonnull @dumper, ptr noundef nonnull @.str.14)
  call void @json_dumper_value_string(ptr noundef nonnull @dumper, ptr noundef %69)
  %70 = load i32, ptr %4, align 4
  call void (ptr, ptr, ...) @sharkd_json_value_anyf(ptr noundef nonnull @.str.121, ptr noundef nonnull @.str.5, i32 noundef %70)
  call void @json_dumper_end_object(ptr noundef nonnull @dumper)
  call void @json_dumper_end_object(ptr noundef nonnull @dumper)
  %71 = call zeroext i1 @json_dumper_finish(ptr noundef nonnull @dumper)
  %72 = load ptr, ptr @stdout, align 8
  %73 = call i32 @fflush(ptr noundef %72)
  br label %74

74:                                               ; preds = %json_find_attr.exit.thread, %66, %67, %json_find_attr.exit, %27
  call void @llvm.lifetime.end.p0(i64 4, ptr nonnull %4) #17
  ret void
}